
a.out:     file format elf64-x86-64


Disassembly of section .init:

0000000000001000 <_init>:
    1000:	48 83 ec 08          	sub    rsp,0x8
    1004:	48 8b 05 dd 2f 00 00 	mov    rax,QWORD PTR [rip+0x2fdd]        # 3fe8 <__gmon_start__>
    100b:	48 85 c0             	test   rax,rax
    100e:	74 02                	je     1012 <_init+0x12>
    1010:	ff d0                	call   rax
    1012:	48 83 c4 08          	add    rsp,0x8
    1016:	c3                   	ret    

Disassembly of section .plt:

0000000000001020 <.plt>:
    1020:	ff 35 92 2f 00 00    	push   QWORD PTR [rip+0x2f92]        # 3fb8 <_GLOBAL_OFFSET_TABLE_+0x8>
    1026:	ff 25 94 2f 00 00    	jmp    QWORD PTR [rip+0x2f94]        # 3fc0 <_GLOBAL_OFFSET_TABLE_+0x10>
    102c:	0f 1f 40 00          	nop    DWORD PTR [rax+0x0]

0000000000001030 <__stack_chk_fail@plt>:
    1030:	ff 25 92 2f 00 00    	jmp    QWORD PTR [rip+0x2f92]        # 3fc8 <__stack_chk_fail@GLIBC_2.4>
    1036:	68 00 00 00 00       	push   0x0
    103b:	e9 e0 ff ff ff       	jmp    1020 <.plt>

0000000000001040 <printf@plt>:
    1040:	ff 25 8a 2f 00 00    	jmp    QWORD PTR [rip+0x2f8a]        # 3fd0 <printf@GLIBC_2.2.5>
    1046:	68 01 00 00 00       	push   0x1
    104b:	e9 d0 ff ff ff       	jmp    1020 <.plt>

Disassembly of section .plt.got:

0000000000001050 <__cxa_finalize@plt>:
    1050:	ff 25 a2 2f 00 00    	jmp    QWORD PTR [rip+0x2fa2]        # 3ff8 <__cxa_finalize@GLIBC_2.2.5>
    1056:	66 90                	xchg   ax,ax

Disassembly of section .text:

0000000000001060 <_start>:
    1060:	31 ed                	xor    ebp,ebp
    1062:	49 89 d1             	mov    r9,rdx
    1065:	5e                   	pop    rsi
    1066:	48 89 e2             	mov    rdx,rsp
    1069:	48 83 e4 f0          	and    rsp,0xfffffffffffffff0
    106d:	50                   	push   rax
    106e:	54                   	push   rsp
    106f:	4c 8d 05 3a 02 00 00 	lea    r8,[rip+0x23a]        # 12b0 <__libc_csu_fini>
    1076:	48 8d 0d d3 01 00 00 	lea    rcx,[rip+0x1d3]        # 1250 <__libc_csu_init>
    107d:	48 8d 3d 97 01 00 00 	lea    rdi,[rip+0x197]        # 121b <main>
    1084:	ff 15 56 2f 00 00    	call   QWORD PTR [rip+0x2f56]        # 3fe0 <__libc_start_main@GLIBC_2.2.5>
    108a:	f4                   	hlt    
    108b:	0f 1f 44 00 00       	nop    DWORD PTR [rax+rax*1+0x0]

0000000000001090 <deregister_tm_clones>:
    1090:	48 8d 3d 79 2f 00 00 	lea    rdi,[rip+0x2f79]        # 4010 <__TMC_END__>
    1097:	48 8d 05 72 2f 00 00 	lea    rax,[rip+0x2f72]        # 4010 <__TMC_END__>
    109e:	48 39 f8             	cmp    rax,rdi
    10a1:	74 15                	je     10b8 <deregister_tm_clones+0x28>
    10a3:	48 8b 05 2e 2f 00 00 	mov    rax,QWORD PTR [rip+0x2f2e]        # 3fd8 <_ITM_deregisterTMCloneTable>
    10aa:	48 85 c0             	test   rax,rax
    10ad:	74 09                	je     10b8 <deregister_tm_clones+0x28>
    10af:	ff e0                	jmp    rax
    10b1:	0f 1f 80 00 00 00 00 	nop    DWORD PTR [rax+0x0]
    10b8:	c3                   	ret    
    10b9:	0f 1f 80 00 00 00 00 	nop    DWORD PTR [rax+0x0]

00000000000010c0 <register_tm_clones>:
    10c0:	48 8d 3d 49 2f 00 00 	lea    rdi,[rip+0x2f49]        # 4010 <__TMC_END__>
    10c7:	48 8d 35 42 2f 00 00 	lea    rsi,[rip+0x2f42]        # 4010 <__TMC_END__>
    10ce:	48 29 fe             	sub    rsi,rdi
    10d1:	48 c1 fe 03          	sar    rsi,0x3
    10d5:	48 89 f0             	mov    rax,rsi
    10d8:	48 c1 e8 3f          	shr    rax,0x3f
    10dc:	48 01 c6             	add    rsi,rax
    10df:	48 d1 fe             	sar    rsi,1
    10e2:	74 14                	je     10f8 <register_tm_clones+0x38>
    10e4:	48 8b 05 05 2f 00 00 	mov    rax,QWORD PTR [rip+0x2f05]        # 3ff0 <_ITM_registerTMCloneTable>
    10eb:	48 85 c0             	test   rax,rax
    10ee:	74 08                	je     10f8 <register_tm_clones+0x38>
    10f0:	ff e0                	jmp    rax
    10f2:	66 0f 1f 44 00 00    	nop    WORD PTR [rax+rax*1+0x0]
    10f8:	c3                   	ret    
    10f9:	0f 1f 80 00 00 00 00 	nop    DWORD PTR [rax+0x0]

0000000000001100 <__do_global_dtors_aux>:
    1100:	80 3d 09 2f 00 00 00 	cmp    BYTE PTR [rip+0x2f09],0x0        # 4010 <__TMC_END__>
    1107:	75 2f                	jne    1138 <__do_global_dtors_aux+0x38>
    1109:	55                   	push   rbp
    110a:	48 83 3d e6 2e 00 00 	cmp    QWORD PTR [rip+0x2ee6],0x0        # 3ff8 <__cxa_finalize@GLIBC_2.2.5>
    1111:	00 
    1112:	48 89 e5             	mov    rbp,rsp
    1115:	74 0c                	je     1123 <__do_global_dtors_aux+0x23>
    1117:	48 8b 3d ea 2e 00 00 	mov    rdi,QWORD PTR [rip+0x2eea]        # 4008 <__dso_handle>
    111e:	e8 2d ff ff ff       	call   1050 <__cxa_finalize@plt>
    1123:	e8 68 ff ff ff       	call   1090 <deregister_tm_clones>
    1128:	c6 05 e1 2e 00 00 01 	mov    BYTE PTR [rip+0x2ee1],0x1        # 4010 <__TMC_END__>
    112f:	5d                   	pop    rbp
    1130:	c3                   	ret    
    1131:	0f 1f 80 00 00 00 00 	nop    DWORD PTR [rax+0x0]
    1138:	c3                   	ret    
    1139:	0f 1f 80 00 00 00 00 	nop    DWORD PTR [rax+0x0]

0000000000001140 <frame_dummy>:
    1140:	e9 7b ff ff ff       	jmp    10c0 <register_tm_clones>

0000000000001145 <f>:
    1145:	55                   	push   rbp
    1146:	48 89 e5             	mov    rbp,rsp
    1149:	48 81 ec c0 01 00 00 	sub    rsp,0x1c0
    1150:	89 bd 4c fe ff ff    	mov    DWORD PTR [rbp-0x1b4],edi
    1156:	89 b5 48 fe ff ff    	mov    DWORD PTR [rbp-0x1b8],esi
    115c:	64 48 8b 04 25 28 00 	mov    rax,QWORD PTR fs:0x28
    1163:	00 00 
    1165:	48 89 45 f8          	mov    QWORD PTR [rbp-0x8],rax
    1169:	31 c0                	xor    eax,eax
    116b:	48 8d 95 60 fe ff ff 	lea    rdx,[rbp-0x1a0]
    1172:	b8 00 00 00 00       	mov    eax,0x0
    1177:	b9 32 00 00 00       	mov    ecx,0x32
    117c:	48 89 d7             	mov    rdi,rdx
    117f:	f3 48 ab             	rep stos QWORD PTR es:[rdi],rax
    1182:	c7 85 54 fe ff ff 00 	mov    DWORD PTR [rbp-0x1ac],0x0
    1189:	00 00 00 
    118c:	8b 85 4c fe ff ff    	mov    eax,DWORD PTR [rbp-0x1b4]
    1192:	89 85 58 fe ff ff    	mov    DWORD PTR [rbp-0x1a8],eax
    1198:	eb 23                	jmp    11bd <f+0x78>
    119a:	8b 85 54 fe ff ff    	mov    eax,DWORD PTR [rbp-0x1ac]
    11a0:	48 98                	cdqe   
    11a2:	8b 95 58 fe ff ff    	mov    edx,DWORD PTR [rbp-0x1a8]
    11a8:	89 94 85 60 fe ff ff 	mov    DWORD PTR [rbp+rax*4-0x1a0],edx
    11af:	83 85 54 fe ff ff 01 	add    DWORD PTR [rbp-0x1ac],0x1
    11b6:	83 85 58 fe ff ff 01 	add    DWORD PTR [rbp-0x1a8],0x1
    11bd:	8b 85 58 fe ff ff    	mov    eax,DWORD PTR [rbp-0x1a8]
    11c3:	3b 85 48 fe ff ff    	cmp    eax,DWORD PTR [rbp-0x1b8]
    11c9:	7c cf                	jl     119a <f+0x55>
    11cb:	c7 85 5c fe ff ff 00 	mov    DWORD PTR [rbp-0x1a4],0x0
    11d2:	00 00 00 
    11d5:	eb 1f                	jmp    11f6 <f+0xb1>
    11d7:	8b 85 54 fe ff ff    	mov    eax,DWORD PTR [rbp-0x1ac]
    11dd:	83 e8 01             	sub    eax,0x1
    11e0:	48 98                	cdqe   
    11e2:	8b 84 85 60 fe ff ff 	mov    eax,DWORD PTR [rbp+rax*4-0x1a0]
    11e9:	01 85 5c fe ff ff    	add    DWORD PTR [rbp-0x1a4],eax
    11ef:	83 ad 54 fe ff ff 01 	sub    DWORD PTR [rbp-0x1ac],0x1
    11f6:	83 bd 54 fe ff ff 00 	cmp    DWORD PTR [rbp-0x1ac],0x0
    11fd:	7f d8                	jg     11d7 <f+0x92>
    11ff:	8b 85 5c fe ff ff    	mov    eax,DWORD PTR [rbp-0x1a4]
    1205:	48 8b 75 f8          	mov    rsi,QWORD PTR [rbp-0x8]
    1209:	64 48 33 34 25 28 00 	xor    rsi,QWORD PTR fs:0x28
    1210:	00 00 
    1212:	74 05                	je     1219 <f+0xd4>
    1214:	e8 17 fe ff ff       	call   1030 <__stack_chk_fail@plt>
    1219:	c9                   	leave  
    121a:	c3                   	ret    

000000000000121b <main>:
    121b:	55                   	push   rbp
    121c:	48 89 e5             	mov    rbp,rsp
    121f:	be 02 00 00 00       	mov    esi,0x2
    1224:	bf 01 00 00 00       	mov    edi,0x1
    1229:	e8 17 ff ff ff       	call   1145 <f>
    122e:	89 c6                	mov    esi,eax
    1230:	48 8d 3d cd 0d 00 00 	lea    rdi,[rip+0xdcd]        # 2004 <_IO_stdin_used+0x4>
    1237:	b8 00 00 00 00       	mov    eax,0x0
    123c:	e8 ff fd ff ff       	call   1040 <printf@plt>
    1241:	b8 00 00 00 00       	mov    eax,0x0
    1246:	5d                   	pop    rbp
    1247:	c3                   	ret    
    1248:	0f 1f 84 00 00 00 00 	nop    DWORD PTR [rax+rax*1+0x0]
    124f:	00 

0000000000001250 <__libc_csu_init>:
    1250:	41 57                	push   r15
    1252:	49 89 d7             	mov    r15,rdx
    1255:	41 56                	push   r14
    1257:	49 89 f6             	mov    r14,rsi
    125a:	41 55                	push   r13
    125c:	41 89 fd             	mov    r13d,edi
    125f:	41 54                	push   r12
    1261:	4c 8d 25 48 2b 00 00 	lea    r12,[rip+0x2b48]        # 3db0 <__frame_dummy_init_array_entry>
    1268:	55                   	push   rbp
    1269:	48 8d 2d 48 2b 00 00 	lea    rbp,[rip+0x2b48]        # 3db8 <__init_array_end>
    1270:	53                   	push   rbx
    1271:	4c 29 e5             	sub    rbp,r12
    1274:	48 83 ec 08          	sub    rsp,0x8
    1278:	e8 83 fd ff ff       	call   1000 <_init>
    127d:	48 c1 fd 03          	sar    rbp,0x3
    1281:	74 1b                	je     129e <__libc_csu_init+0x4e>
    1283:	31 db                	xor    ebx,ebx
    1285:	0f 1f 00             	nop    DWORD PTR [rax]
    1288:	4c 89 fa             	mov    rdx,r15
    128b:	4c 89 f6             	mov    rsi,r14
    128e:	44 89 ef             	mov    edi,r13d
    1291:	41 ff 14 dc          	call   QWORD PTR [r12+rbx*8]
    1295:	48 83 c3 01          	add    rbx,0x1
    1299:	48 39 dd             	cmp    rbp,rbx
    129c:	75 ea                	jne    1288 <__libc_csu_init+0x38>
    129e:	48 83 c4 08          	add    rsp,0x8
    12a2:	5b                   	pop    rbx
    12a3:	5d                   	pop    rbp
    12a4:	41 5c                	pop    r12
    12a6:	41 5d                	pop    r13
    12a8:	41 5e                	pop    r14
    12aa:	41 5f                	pop    r15
    12ac:	c3                   	ret    
    12ad:	0f 1f 00             	nop    DWORD PTR [rax]

00000000000012b0 <__libc_csu_fini>:
    12b0:	c3                   	ret    

Disassembly of section .fini:

00000000000012b4 <_fini>:
    12b4:	48 83 ec 08          	sub    rsp,0x8
    12b8:	48 83 c4 08          	add    rsp,0x8
    12bc:	c3                   	ret    
